target datalayout = "e-m:e-p270:32:32-p271:32:32-p272:64:64-i64:64-i128:128-f80:128-n8:16:32:64-S128"
target triple = "x86_64-unknown-linux-gnu"

%struct.MapInfo = type { %struct.IntervalTreeNode, i8, i8, i8, i8, i64, i64, i64, ptr }
%struct.IntervalTreeNode = type { %struct.RBNode, i64, i64, i64 }
%struct.RBNode = type { i64, ptr, ptr }
%struct.__sigset_t = type { [16 x i64] }
%struct.TaskState = type { i32, i32, i64, i64, i64, i64, i32, ptr, ptr, %struct.emulated_sigtable, [64 x %struct.emulated_sigtable], %struct.__sigset_t, %struct.__sigset_t, i32, i32, %struct.target_sigaltstack, i64 }
%struct.emulated_sigtable = type { i32, %struct.target_siginfo }
%struct.target_siginfo = type { i32, i32, i32, %union.anon }
%union.anon = type { %struct.anon.2, [80 x i8] }
%struct.anon.2 = type { i32, i32, i32, i64, i64 }
%struct.target_sigaltstack = type { i64, i32, i64 }
%struct.image_info = type { i64, i64, i64, i64, i64, i64, i64, i64, i64, i64, i64, i64, i64, i64, i64, i64, i64, i64, i64, i64, i32, i32, i64, i8, i64, i64, i64, i16, ptr, i64, i64, i64, ptr, i32 }
%struct.open_self_maps_data = type { ptr, ptr, i32, i8 }

@guest_base = external global i64, align 8
@.str.596 = private unnamed_addr constant [8 x i8] c"[stack]\00", align 1
@.str.597 = private unnamed_addr constant [7 x i8] c"[heap]\00", align 1
@.str.598 = private unnamed_addr constant [7 x i8] c"[vdso]\00", align 1
@.str.599 = private unnamed_addr constant [37 x i8] c"%lx-%lx %c%c%c%c %08lx %02x:%02x %ld\00", align 1
@.str.600 = private unnamed_addr constant [7 x i8] c"%*s%s\0A\00", align 1
@.str.601 = private unnamed_addr constant [1 x i8] zeroinitializer, align 1
@.str.602 = private unnamed_addr constant [2 x i8] c"\0A\00", align 1
@.str.604 = private unnamed_addr constant [4 x i8] c" rd\00", align 1
@.str.605 = private unnamed_addr constant [4 x i8] c" wr\00", align 1
@.str.606 = private unnamed_addr constant [4 x i8] c" ex\00", align 1
@.str.607 = private unnamed_addr constant [4 x i8] c" sh\00", align 1
@.str.608 = private unnamed_addr constant [4 x i8] c" mr\00", align 1
@.str.609 = private unnamed_addr constant [4 x i8] c" mw\00", align 1
@.str.610 = private unnamed_addr constant [4 x i8] c" me\00", align 1
@.str.611 = private unnamed_addr constant [4 x i8] c" ms\00", align 1

; Function Attrs: nounwind sspstrong uwtable
define internal ptr @g2h_untagged(i64 noundef %x) #0 {
entry:
  %x.addr = alloca i64, align 8
  store i64 %x, ptr %x.addr, align 8
  %0 = load i64, ptr %x.addr, align 8
  %1 = load i64, ptr @guest_base, align 8
  %add = add i64 %0, %1
  %2 = inttoptr i64 %add to ptr
  ret ptr %2
}

; Function Attrs: nounwind sspstrong uwtable
define internal void @open_self_maps_4(ptr noundef %d, ptr noundef %mi, i64 noundef %start, i64 noundef %end, i32 noundef %flags) #0 {
entry:
  %d.addr = alloca ptr, align 8
  %mi.addr = alloca ptr, align 8
  %start.addr = alloca i64, align 8
  %end.addr = alloca i64, align 8
  %flags.addr = alloca i32, align 4
  %info = alloca ptr, align 8
  %path = alloca ptr, align 8
  %offset = alloca i64, align 8
  %fd = alloca i32, align 4
  %count = alloca i32, align 4
  %hstart = alloca i64, align 8
  %size = alloca i64, align 8
  %page_size_kb = alloca i64, align 8
  %size_kb = alloca i64, align 8
  store ptr %d, ptr %d.addr, align 8
  store ptr %mi, ptr %mi.addr, align 8
  store i64 %start, ptr %start.addr, align 8
  store i64 %end, ptr %end.addr, align 8
  store i32 %flags, ptr %flags.addr, align 4
  %0 = load ptr, ptr %d.addr, align 8
  %ts = getelementptr inbounds %struct.open_self_maps_data, ptr %0, i32 0, i32 0
  %1 = load ptr, ptr %ts, align 8
  %info1 = getelementptr inbounds %struct.TaskState, ptr %1, i32 0, i32 7
  %2 = load ptr, ptr %info1, align 8
  store ptr %2, ptr %info, align 8
  %3 = load ptr, ptr %mi.addr, align 8
  %path2 = getelementptr inbounds %struct.MapInfo, ptr %3, i32 0, i32 8
  %4 = load ptr, ptr %path2, align 8
  store ptr %4, ptr %path, align 8
  %5 = load ptr, ptr %d.addr, align 8
  %fd3 = getelementptr inbounds %struct.open_self_maps_data, ptr %5, i32 0, i32 2
  %6 = load i32, ptr %fd3, align 8
  store i32 %6, ptr %fd, align 4
  %7 = load i64, ptr %start.addr, align 8
  %8 = load ptr, ptr %info, align 8
  %stack_limit = getelementptr inbounds %struct.image_info, ptr %8, i32 0, i32 8
  %9 = load i64, ptr %stack_limit, align 8
  %cmp = icmp eq i64 %7, %9
  br i1 %cmp, label %if.then, label %if.else

if.then:                                          ; preds = %entry
  store ptr @.str.596, ptr %path, align 8
  br label %if.end10

if.else:                                          ; preds = %entry
  %10 = load i64, ptr %start.addr, align 8
  %11 = load ptr, ptr %info, align 8
  %brk = getelementptr inbounds %struct.image_info, ptr %11, i32 0, i32 6
  %12 = load i64, ptr %brk, align 8
  %cmp4 = icmp eq i64 %10, %12
  br i1 %cmp4, label %if.then5, label %if.else6

if.then5:                                         ; preds = %if.else
  store ptr @.str.597, ptr %path, align 8
  br label %if.end9

if.else6:                                         ; preds = %if.else
  %13 = load i64, ptr %start.addr, align 8
  %14 = load ptr, ptr %info, align 8
  %vdso = getelementptr inbounds %struct.image_info, ptr %14, i32 0, i32 9
  %15 = load i64, ptr %vdso, align 8
  %cmp7 = icmp eq i64 %13, %15
  br i1 %cmp7, label %if.then8, label %if.end

if.then8:                                         ; preds = %if.else6
  store ptr @.str.598, ptr %path, align 8
  br label %if.end

if.end:                                           ; preds = %if.then8, %if.else6
  br label %if.end9

if.end9:                                          ; preds = %if.end, %if.then5
  br label %if.end10

if.end10:                                         ; preds = %if.end9, %if.then
  %16 = load ptr, ptr %mi.addr, align 8
  %offset11 = getelementptr inbounds %struct.MapInfo, ptr %16, i32 0, i32 7
  %17 = load i64, ptr %offset11, align 8
  store i64 %17, ptr %offset, align 8
  %18 = load ptr, ptr %mi.addr, align 8
  %dev = getelementptr inbounds %struct.MapInfo, ptr %18, i32 0, i32 5
  %19 = load i64, ptr %dev, align 8
  %tobool = icmp ne i64 %19, 0
  br i1 %tobool, label %if.then12, label %if.end14

if.then12:                                        ; preds = %if.end10
  %20 = load i64, ptr %start.addr, align 8
  %call = call ptr @g2h_untagged(i64 noundef %20)
  %21 = ptrtoint ptr %call to i64
  store i64 %21, ptr %hstart, align 8
  %22 = load i64, ptr %hstart, align 8
  %23 = load ptr, ptr %mi.addr, align 8
  %itree = getelementptr inbounds %struct.MapInfo, ptr %23, i32 0, i32 0
  %start13 = getelementptr inbounds %struct.IntervalTreeNode, ptr %itree, i32 0, i32 1
  %24 = load i64, ptr %start13, align 8
  %sub = sub i64 %22, %24
  %25 = load i64, ptr %offset, align 8
  %add = add i64 %25, %sub
  store i64 %add, ptr %offset, align 8
  br label %if.end14

if.end14:                                         ; preds = %if.then12, %if.end10
  %26 = load i32, ptr %fd, align 4
  %27 = load i64, ptr %start.addr, align 8
  %28 = load i64, ptr %end.addr, align 8
  %29 = load i32, ptr %flags.addr, align 4
  %and = and i32 %29, 1
  %tobool15 = icmp ne i32 %and, 0
  %cond = select i1 %tobool15, i32 114, i32 45
  %30 = load i32, ptr %flags.addr, align 4
  %and16 = and i32 %30, 16
  %tobool17 = icmp ne i32 %and16, 0
  %cond18 = select i1 %tobool17, i32 119, i32 45
  %31 = load i32, ptr %flags.addr, align 4
  %and19 = and i32 %31, 4
  %tobool20 = icmp ne i32 %and19, 0
  %cond21 = select i1 %tobool20, i32 120, i32 45
  %32 = load ptr, ptr %mi.addr, align 8
  %is_priv = getelementptr inbounds %struct.MapInfo, ptr %32, i32 0, i32 4
  %33 = load i8, ptr %is_priv, align 1
  %tobool22 = trunc i8 %33 to i1
  %cond23 = select i1 %tobool22, i32 112, i32 115
  %34 = load i64, ptr %offset, align 8
  %35 = load ptr, ptr %mi.addr, align 8
  %dev24 = getelementptr inbounds %struct.MapInfo, ptr %35, i32 0, i32 5
  %36 = load i64, ptr %dev24, align 8
  %call25 = call i32 @gnu_dev_major(i64 noundef %36) #13
  %37 = load ptr, ptr %mi.addr, align 8
  %dev26 = getelementptr inbounds %struct.MapInfo, ptr %37, i32 0, i32 5
  %38 = load i64, ptr %dev26, align 8
  %call27 = call i32 @gnu_dev_minor(i64 noundef %38) #13
  %39 = load ptr, ptr %mi.addr, align 8
  %inode = getelementptr inbounds %struct.MapInfo, ptr %39, i32 0, i32 6
  %40 = load i64, ptr %inode, align 8
  %call28 = call i32 (i32, ptr, ...) @dprintf(i32 noundef %26, ptr noundef @.str.599, i64 noundef %27, i64 noundef %28, i32 noundef %cond, i32 noundef %cond18, i32 noundef %cond21, i32 noundef %cond23, i64 noundef %34, i32 noundef %call25, i32 noundef %call27, i64 noundef %40)
  store i32 %call28, ptr %count, align 4
  %41 = load ptr, ptr %path, align 8
  %tobool29 = icmp ne ptr %41, null
  br i1 %tobool29, label %if.then30, label %if.else33

if.then30:                                        ; preds = %if.end14
  %42 = load i32, ptr %fd, align 4
  %43 = load i32, ptr %count, align 4
  %sub31 = sub i32 73, %43
  %44 = load ptr, ptr %path, align 8
  %call32 = call i32 (i32, ptr, ...) @dprintf(i32 noundef %42, ptr noundef @.str.600, i32 noundef %sub31, ptr noundef @.str.601, ptr noundef %44)
  br label %if.end35

if.else33:                                        ; preds = %if.end14
  %45 = load i32, ptr %fd, align 4
  %call34 = call i32 (i32, ptr, ...) @dprintf(i32 noundef %45, ptr noundef @.str.602)
  br label %if.end35

if.end35:                                         ; preds = %if.else33, %if.then30
  %46 = load ptr, ptr %d.addr, align 8
  %smaps = getelementptr inbounds %struct.open_self_maps_data, ptr %46, i32 0, i32 3
  %47 = load i8, ptr %smaps, align 4
  %tobool36 = trunc i8 %47 to i1
  br i1 %tobool36, label %if.then37, label %if.end67

if.then37:                                        ; preds = %if.end35
  %48 = load i64, ptr %end.addr, align 8
  %49 = load i64, ptr %start.addr, align 8
  %sub38 = sub i64 %48, %49
  store i64 %sub38, ptr %size, align 8
  store i64 4, ptr %page_size_kb, align 8
  %50 = load i64, ptr %size, align 8
  %shr = lshr i64 %50, 10
  store i64 %shr, ptr %size_kb, align 8
  %51 = load i32, ptr %fd, align 4
  %52 = load i64, ptr %size_kb, align 8
  %53 = load i64, ptr %page_size_kb, align 8
  %54 = load i64, ptr %page_size_kb, align 8
  %55 = load i32, ptr %flags.addr, align 4
  %and39 = and i32 %55, 128
  %tobool40 = icmp ne i32 %and39, 0
  br i1 %tobool40, label %cond.true, label %cond.false

cond.true:                                        ; preds = %if.then37
  %56 = load i64, ptr %size_kb, align 8
  br label %cond.end

cond.false:                                       ; preds = %if.then37
  br label %cond.end

cond.end:                                         ; preds = %cond.false, %cond.true
  %cond41 = phi i64 [ %56, %cond.true ], [ 0, %cond.false ]
  %57 = load i32, ptr %flags.addr, align 4
  %and42 = and i32 %57, 1
  %tobool43 = icmp ne i32 %and42, 0
  %cond44 = select i1 %tobool43, ptr @.str.604, ptr @.str.601
  %58 = load i32, ptr %flags.addr, align 4
  %and45 = and i32 %58, 16
  %tobool46 = icmp ne i32 %and45, 0
  %cond47 = select i1 %tobool46, ptr @.str.605, ptr @.str.601
  %59 = load i32, ptr %flags.addr, align 4
  %and48 = and i32 %59, 4
  %tobool49 = icmp ne i32 %and48, 0
  %cond50 = select i1 %tobool49, ptr @.str.606, ptr @.str.601
  %60 = load ptr, ptr %mi.addr, align 8
  %is_priv51 = getelementptr inbounds %struct.MapInfo, ptr %60, i32 0, i32 4
  %61 = load i8, ptr %is_priv51, align 1
  %tobool52 = trunc i8 %61 to i1
  %cond53 = select i1 %tobool52, ptr @.str.601, ptr @.str.607
  %62 = load i32, ptr %flags.addr, align 4
  %and54 = and i32 %62, 1
  %tobool55 = icmp ne i32 %and54, 0
  %cond56 = select i1 %tobool55, ptr @.str.608, ptr @.str.601
  %63 = load i32, ptr %flags.addr, align 4
  %and57 = and i32 %63, 16
  %tobool58 = icmp ne i32 %and57, 0
  %cond59 = select i1 %tobool58, ptr @.str.609, ptr @.str.601
  %64 = load i32, ptr %flags.addr, align 4
  %and60 = and i32 %64, 4
  %tobool61 = icmp ne i32 %and60, 0
  %cond62 = select i1 %tobool61, ptr @.str.610, ptr @.str.601
  %65 = load ptr, ptr %mi.addr, align 8
  %is_priv63 = getelementptr inbounds %struct.MapInfo, ptr %65, i32 0, i32 4
  %66 = load i8, ptr %is_priv63, align 1
  %tobool64 = trunc i8 %66 to i1
  %cond65 = select i1 %tobool64, ptr @.str.601, ptr @.str.611
  %call66 = call i32 (i32, ptr, ...) @dprintf(i32 noundef %51, ptr noundef @.str.603, i64 noundef %52, i64 noundef %53, i64 noundef %54, i64 noundef %cond41, ptr noundef %cond44, ptr noundef %cond47, ptr noundef %cond50, ptr noundef %cond53, ptr noundef %cond56, ptr noundef %cond59, ptr noundef %cond62, ptr noundef %cond65)
  br label %if.end67

if.end67:                                         ; preds = %cond.end, %if.end35
  ret void
}