; Function Attrs: nounwind sspstrong uwtable
define internal fastcc void @open_self_maps_4(ptr noundef readonly captures(none) %d, ptr noundef readonly captures(none) %mi, i64 noundef %start, i64 noundef %end, i32 noundef %flags) unnamed_addr #2 {
entry:
  %0 = load ptr, ptr %d, align 8
  %info1 = getelementptr inbounds nuw i8, ptr %0, i64 48
  %1 = load ptr, ptr %info1, align 8
  %path2 = getelementptr inbounds nuw i8, ptr %mi, i64 80
  %2 = load ptr, ptr %path2, align 8
  %fd3 = getelementptr inbounds nuw i8, ptr %d, i64 16
  %3 = load i32, ptr %fd3, align 8
  %stack_limit = getelementptr inbounds nuw i8, ptr %1, i64 64
  %4 = load i64, ptr %stack_limit, align 8
  %cmp = icmp eq i64 %start, %4
  br i1 %cmp, label %if.end10, label %if.else

if.else:                                          ; preds = %entry
  %brk = getelementptr inbounds nuw i8, ptr %1, i64 48
  %5 = load i64, ptr %brk, align 8
  %cmp4 = icmp eq i64 %start, %5
  br i1 %cmp4, label %if.end10, label %if.else6

if.else6:                                         ; preds = %if.else
  %vdso = getelementptr inbounds nuw i8, ptr %1, i64 72
  %6 = load i64, ptr %vdso, align 8
  %cmp7 = icmp eq i64 %start, %6
  %spec.select = select i1 %cmp7, ptr @.str.598, ptr %2
  br label %if.end10

if.end10:                                         ; preds = %if.else6, %if.else, %entry
  %path.0 = phi ptr [ @.str.596, %entry ], [ @.str.597, %if.else ], [ %spec.select, %if.else6 ]
  %offset11 = getelementptr inbounds nuw i8, ptr %mi, i64 72
  %7 = load i64, ptr %offset11, align 8
  %dev = getelementptr inbounds nuw i8, ptr %mi, i64 56
  %8 = load i64, ptr %dev, align 8
  %tobool.not = icmp eq i64 %8, 0
  br i1 %tobool.not, label %if.end14, label %if.then12

if.then12:                                        ; preds = %if.end10
  %9 = load i64, ptr @guest_base, align 8
  %start13 = getelementptr inbounds nuw i8, ptr %mi, i64 24
  %10 = load i64, ptr %start13, align 8
  %add.i = add i64 %7, %start
  %sub = add i64 %add.i, %9
  %add = sub i64 %sub, %10
  br label %if.end14

if.end14:                                         ; preds = %if.then12, %if.end10
  %offset.0 = phi i64 [ %add, %if.then12 ], [ %7, %if.end10 ]
  %and = and i32 %flags, 1
  %tobool15.not = icmp eq i32 %and, 0
  %cond = select i1 %tobool15.not, i32 45, i32 114
  %and16 = and i32 %flags, 16
  %tobool17.not = icmp eq i32 %and16, 0
  %cond18 = select i1 %tobool17.not, i32 45, i32 119
  %and19 = and i32 %flags, 4
  %tobool20.not = icmp eq i32 %and19, 0
  %cond21 = select i1 %tobool20.not, i32 45, i32 120
  %is_priv = getelementptr inbounds nuw i8, ptr %mi, i64 51
  %11 = load i8, ptr %is_priv, align 1
  %tobool22 = trunc i8 %11 to i1
  %cond23 = select i1 %tobool22, i32 112, i32 115
  %call25 = tail call i32 @gnu_dev_major(i64 noundef %8) #26
  %call27 = tail call i32 @gnu_dev_minor(i64 noundef %8) #26
  %inode = getelementptr inbounds nuw i8, ptr %mi, i64 64
  %12 = load i64, ptr %inode, align 8
  %call28 = tail call i32 (i32, ptr, ...) @dprintf(i32 noundef %3, ptr noundef nonnull @.str.599, i64 noundef %start, i64 noundef %end, i32 noundef %cond, i32 noundef %cond18, i32 noundef %cond21, i32 noundef %cond23, i64 noundef %offset.0, i32 noundef %call25, i32 noundef %call27, i64 noundef %12) #27
  %tobool29.not = icmp eq ptr %path.0, null
  br i1 %tobool29.not, label %if.else33, label %if.then30

if.then30:                                        ; preds = %if.end14
  %sub31 = sub i32 73, %call28
  %call32 = tail call i32 (i32, ptr, ...) @dprintf(i32 noundef %3, ptr noundef nonnull @.str.600, i32 noundef %sub31, ptr noundef nonnull @.str.601, ptr noundef nonnull %path.0) #27
  br label %if.end35

if.else33:                                        ; preds = %if.end14
  %call34 = tail call i32 (i32, ptr, ...) @dprintf(i32 noundef %3, ptr noundef nonnull @.str.602) #27
  br label %if.end35

if.end35:                                         ; preds = %if.else33, %if.then30
  %smaps = getelementptr inbounds nuw i8, ptr %d, i64 20
  %13 = load i8, ptr %smaps, align 4
  %tobool36 = trunc i8 %13 to i1
  br i1 %tobool36, label %if.then37, label %if.end67

if.then37:                                        ; preds = %if.end35
  %sub38 = sub i64 %end, %start
  %shr = lshr i64 %sub38, 10
  %and39 = and i32 %flags, 128
  %tobool40.not = icmp eq i32 %and39, 0
  %cond41 = select i1 %tobool40.not, i64 0, i64 %shr
  %cond44 = select i1 %tobool15.not, ptr @.str.601, ptr @.str.604
  %cond47 = select i1 %tobool17.not, ptr @.str.601, ptr @.str.605
  %cond50 = select i1 %tobool20.not, ptr @.str.601, ptr @.str.606
  %14 = load i8, ptr %is_priv, align 1
  %tobool52 = trunc i8 %14 to i1
  %cond53 = select i1 %tobool52, ptr @.str.601, ptr @.str.607
  %cond56 = select i1 %tobool15.not, ptr @.str.601, ptr @.str.608
  %cond59 = select i1 %tobool17.not, ptr @.str.601, ptr @.str.609
  %cond62 = select i1 %tobool20.not, ptr @.str.601, ptr @.str.610
  %cond65 = select i1 %tobool52, ptr @.str.601, ptr @.str.611
  %call66 = tail call i32 (i32, ptr, ...) @dprintf(i32 noundef %3, ptr noundef nonnull @.str.603, i64 noundef %shr, i64 noundef 4, i64 noundef 4, i64 noundef %cond41, ptr noundef nonnull %cond44, ptr noundef nonnull %cond47, ptr noundef nonnull %cond50, ptr noundef nonnull %cond53, ptr noundef nonnull %cond56, ptr noundef nonnull %cond59, ptr noundef nonnull %cond62, ptr noundef nonnull %cond65) #27
  br label %if.end67

if.end67:                                         ; preds = %if.then37, %if.end35
  ret void
}